target datalayout = "e-m:e-p270:32:32-p271:32:32-p272:64:64-i64:64-i128:128-f80:128-n8:16:32:64-S128"
target triple = "x86_64-pc-linux-gnu"

%"class.cv::Mat" = type { i32, i32, i32, i32, ptr, ptr, ptr, ptr, ptr, ptr, %"struct.cv::MatSize", %"struct.cv::MatStep" }
%"struct.cv::MatSize" = type { ptr }
%"struct.cv::MatStep" = type { ptr, [2 x i64] }

; Function Attrs: inlinehint mustprogress nounwind uwtable
define linkonce_odr noundef double @_ZSt3absd(double noundef %0) #9 comdat {
  %2 = alloca double, align 8
  store double %0, ptr %2, align 8, !tbaa !26
  %3 = load double, ptr %2, align 8, !tbaa !26
  %4 = call double @llvm.fabs.f64(double %3)
  ret double %4
}

; Function Attrs: inlinehint mustprogress nounwind uwtable
define linkonce_odr noundef double @_ZSt3powIdiEN9__gnu_cxx11__promote_2IT_T0_NS0_9__promoteIS2_Xsr3std12__is_integerIS2_EE7__valueEE6__typeENS4_IS3_Xsr3std12__is_integerIS3_EE7__valueEE6__typeEE6__typeES2_S3_(double noundef %0, i32 noundef %1) #9 comdat {
  %3 = alloca double, align 8
  %4 = alloca i32, align 4
  store double %0, ptr %3, align 8, !tbaa !26
  store i32 %1, ptr %4, align 4, !tbaa !24
  %5 = load double, ptr %3, align 8, !tbaa !26
  %6 = load i32, ptr %4, align 4, !tbaa !24
  %7 = sitofp i32 %6 to double
  %8 = call double @pow(double noundef %5, double noundef %7) #3, !tbaa !24
  ret double %8
}

; Function Attrs: inlinehint mustprogress nounwind uwtable
define linkonce_odr hidden noundef nonnull align 4 dereferenceable(4) ptr @_ZNK2cv3Mat2atIfEERKT_ii(ptr noundef nonnull align 8 dereferenceable(96) %0, i32 noundef %1, i32 noundef %2) #9 comdat align 2 {
  %4 = alloca ptr, align 8
  %5 = alloca i32, align 4
  %6 = alloca i32, align 4
  store ptr %0, ptr %4, align 8, !tbaa !14
  store i32 %1, ptr %5, align 4, !tbaa !24
  store i32 %2, ptr %6, align 4, !tbaa !24
  %7 = load ptr, ptr %4, align 8
  %8 = getelementptr inbounds nuw %"class.cv::Mat", ptr %7, i32 0, i32 4
  %9 = load ptr, ptr %8, align 8, !tbaa !110
  %10 = getelementptr inbounds nuw %"class.cv::Mat", ptr %7, i32 0, i32 11
  %11 = getelementptr inbounds nuw %"struct.cv::MatStep", ptr %10, i32 0, i32 0
  %12 = load ptr, ptr %11, align 8, !tbaa !111
  %13 = getelementptr inbounds i64, ptr %12, i64 0
  %14 = load i64, ptr %13, align 8, !tbaa !112
  %15 = load i32, ptr %5, align 4, !tbaa !24
  %16 = sext i32 %15 to i64
  %17 = mul i64 %14, %16
  %18 = getelementptr inbounds nuw i8, ptr %9, i64 %17
  %19 = load i32, ptr %6, align 4, !tbaa !24
  %20 = sext i32 %19 to i64
  %21 = getelementptr inbounds float, ptr %18, i64 %20
  ret ptr %21
}

; Function Attrs: mustprogress uwtable
define internal void @_ZN12_GLOBAL__N_17AGGDfitERKN2cv3MatERdS4_S4_(ptr noundef nonnull align 8 dereferenceable(96) %0, ptr noundef nonnull align 8 dereferenceable(8) %1, ptr noundef nonnull align 8 dereferenceable(8) %2, ptr noundef nonnull align 8 dereferenceable(8) %3) #4 {
  %5 = alloca ptr, align 8
  %6 = alloca ptr, align 8
  %7 = alloca ptr, align 8
  %8 = alloca ptr, align 8
  %9 = alloca i64, align 8
  %10 = alloca i64, align 8
  %11 = alloca double, align 8
  %12 = alloca double, align 8
  %13 = alloca double, align 8
  %14 = alloca i32, align 4
  %15 = alloca i32, align 4
  %16 = alloca i32, align 4
  %17 = alloca double, align 8
  %18 = alloca double, align 8
  %19 = alloca i64, align 8
  %20 = alloca double, align 8
  %21 = alloca double, align 8
  %22 = alloca double, align 8
  %23 = alloca double, align 8
  %24 = alloca double, align 8
  %25 = alloca double, align 8
  %26 = alloca double, align 8
  %27 = alloca double, align 8
  store ptr %0, ptr %5, align 8, !tbaa !14
  store ptr %1, ptr %6, align 8, !tbaa !119
  store ptr %2, ptr %7, align 8, !tbaa !119
  store ptr %3, ptr %8, align 8, !tbaa !119
  call void @llvm.lifetime.start.p0(i64 8, ptr %9) #3
  store i64 0, ptr %9, align 8, !tbaa !112
  call void @llvm.lifetime.start.p0(i64 8, ptr %10) #3
  store i64 0, ptr %10, align 8, !tbaa !112
  call void @llvm.lifetime.start.p0(i64 8, ptr %11) #3
  store double 0.000000e+00, ptr %11, align 8, !tbaa !26
  call void @llvm.lifetime.start.p0(i64 8, ptr %12) #3
  store double 0.000000e+00, ptr %12, align 8, !tbaa !26
  call void @llvm.lifetime.start.p0(i64 8, ptr %13) #3
  store double 0.000000e+00, ptr %13, align 8, !tbaa !26
  call void @llvm.lifetime.start.p0(i64 4, ptr %14) #3
  store i32 0, ptr %14, align 4, !tbaa !24
  br label %28

28:                                               ; preds = %81, %4
  %29 = load i32, ptr %14, align 4, !tbaa !24
  %30 = load ptr, ptr %5, align 8, !tbaa !14
  %31 = getelementptr inbounds nuw %"class.cv::Mat", ptr %30, i32 0, i32 2
  %32 = load i32, ptr %31, align 8, !tbaa !45
  %33 = icmp slt i32 %29, %32
  br i1 %33, label %35, label %34

34:                                               ; preds = %28
  store i32 2, ptr %15, align 4
  call void @llvm.lifetime.end.p0(i64 4, ptr %14) #3
  br label %84

35:                                               ; preds = %28
  call void @llvm.lifetime.start.p0(i64 4, ptr %16) #3
  store i32 0, ptr %16, align 4, !tbaa !24
  br label %36

36:                                               ; preds = %77, %35
  %37 = load i32, ptr %16, align 4, !tbaa !24
  %38 = load ptr, ptr %5, align 8, !tbaa !14
  %39 = getelementptr inbounds nuw %"class.cv::Mat", ptr %38, i32 0, i32 3
  %40 = load i32, ptr %39, align 4, !tbaa !37
  %41 = icmp slt i32 %37, %40
  br i1 %41, label %43, label %42

42:                                               ; preds = %36
  store i32 5, ptr %15, align 4
  call void @llvm.lifetime.end.p0(i64 4, ptr %16) #3
  br label %80

43:                                               ; preds = %36
  call void @llvm.lifetime.start.p0(i64 8, ptr %17) #3
  %44 = load ptr, ptr %5, align 8, !tbaa !14
  %45 = load i32, ptr %14, align 4, !tbaa !24
  %46 = load i32, ptr %16, align 4, !tbaa !24
  %47 = call noundef nonnull align 4 dereferenceable(4) ptr @_ZNK2cv3Mat2atIfEERKT_ii(ptr noundef nonnull align 8 dereferenceable(96) %44, i32 noundef %45, i32 noundef %46)
  %48 = load float, ptr %47, align 4, !tbaa !47
  %49 = fpext float %48 to double
  store double %49, ptr %17, align 8, !tbaa !26
  %50 = load double, ptr %17, align 8, !tbaa !26
  %51 = fcmp ogt double %50, 0.000000e+00
  br i1 %51, label %52, label %62

52:                                               ; preds = %43
  %53 = load i64, ptr %9, align 8, !tbaa !112
  %54 = add nsw i64 %53, 1
  store i64 %54, ptr %9, align 8, !tbaa !112
  %55 = load double, ptr %17, align 8, !tbaa !26
  %56 = load double, ptr %17, align 8, !tbaa !26
  %57 = load double, ptr %11, align 8, !tbaa !26
  %58 = call double @llvm.fmuladd.f64(double %55, double %56, double %57)
  store double %58, ptr %11, align 8, !tbaa !26
  %59 = load double, ptr %17, align 8, !tbaa !26
  %60 = load double, ptr %13, align 8, !tbaa !26
  %61 = fadd double %60, %59
  store double %61, ptr %13, align 8, !tbaa !26
  br label %76

62:                                               ; preds = %43
  %63 = load double, ptr %17, align 8, !tbaa !26
  %64 = fcmp olt double %63, 0.000000e+00
  br i1 %64, label %65, label %75

65:                                               ; preds = %62
  %66 = load i64, ptr %10, align 8, !tbaa !112
  %67 = add nsw i64 %66, 1
  store i64 %67, ptr %10, align 8, !tbaa !112
  %68 = load double, ptr %17, align 8, !tbaa !26
  %69 = load double, ptr %17, align 8, !tbaa !26
  %70 = load double, ptr %12, align 8, !tbaa !26
  %71 = call double @llvm.fmuladd.f64(double %68, double %69, double %70)
  store double %71, ptr %12, align 8, !tbaa !26
  %72 = load double, ptr %17, align 8, !tbaa !26
  %73 = load double, ptr %13, align 8, !tbaa !26
  %74 = fsub double %73, %72
  store double %74, ptr %13, align 8, !tbaa !26
  br label %75

75:                                               ; preds = %65, %62
  br label %76

76:                                               ; preds = %75, %52
  call void @llvm.lifetime.end.p0(i64 8, ptr %17) #3
  br label %77

77:                                               ; preds = %76
  %78 = load i32, ptr %16, align 4, !tbaa !24
  %79 = add nsw i32 %78, 1
  store i32 %79, ptr %16, align 4, !tbaa !24
  br label %36, !llvm.loop !121

80:                                               ; preds = %42
  br label %81

81:                                               ; preds = %80
  %82 = load i32, ptr %14, align 4, !tbaa !24
  %83 = add nsw i32 %82, 1
  store i32 %83, ptr %14, align 4, !tbaa !24
  br label %28, !llvm.loop !122

84:                                               ; preds = %34
  %85 = load double, ptr %12, align 8, !tbaa !26
  %86 = load i64, ptr %10, align 8, !tbaa !112
  %87 = sitofp i64 %86 to double
  %88 = fdiv double %85, %87
  %89 = call double @pow(double noundef %88, double noundef 5.000000e-01) #3, !tbaa !24
  %90 = load ptr, ptr %6, align 8, !tbaa !119
  store double %89, ptr %90, align 8, !tbaa !26
  %91 = load double, ptr %11, align 8, !tbaa !26
  %92 = load i64, ptr %9, align 8, !tbaa !112
  %93 = sitofp i64 %92 to double
  %94 = fdiv double %91, %93
  %95 = call double @pow(double noundef %94, double noundef 5.000000e-01) #3, !tbaa !24
  %96 = load ptr, ptr %7, align 8, !tbaa !119
  store double %95, ptr %96, align 8, !tbaa !26
  call void @llvm.lifetime.start.p0(i64 8, ptr %18) #3
  %97 = load ptr, ptr %6, align 8, !tbaa !119
  %98 = load double, ptr %97, align 8, !tbaa !26
  %99 = load ptr, ptr %7, align 8, !tbaa !119
  %100 = load double, ptr %99, align 8, !tbaa !26
  %101 = fdiv double %98, %100
  store double %101, ptr %18, align 8, !tbaa !26
  call void @llvm.lifetime.start.p0(i64 8, ptr %19) #3
  %102 = load ptr, ptr %5, align 8, !tbaa !14
  %103 = getelementptr inbounds nuw %"class.cv::Mat", ptr %102, i32 0, i32 3
  %104 = load i32, ptr %103, align 4, !tbaa !37
  %105 = load ptr, ptr %5, align 8, !tbaa !14
  %106 = getelementptr inbounds nuw %"class.cv::Mat", ptr %105, i32 0, i32 2
  %107 = load i32, ptr %106, align 8, !tbaa !45
  %108 = mul nsw i32 %104, %107
  %109 = sext i32 %108 to i64
  store i64 %109, ptr %19, align 8, !tbaa !112
  call void @llvm.lifetime.start.p0(i64 8, ptr %20) #3
  %110 = load double, ptr %13, align 8, !tbaa !26
  %111 = load i64, ptr %19, align 8, !tbaa !112
  %112 = sitofp i64 %111 to double
  %113 = fdiv double %110, %112
  %114 = call double @pow(double noundef %113, double noundef 2.000000e+00) #3, !tbaa !24
  %115 = load double, ptr %12, align 8, !tbaa !26
  %116 = load double, ptr %11, align 8, !tbaa !26
  %117 = fadd double %115, %116
  %118 = load i64, ptr %19, align 8, !tbaa !112
  %119 = sitofp i64 %118 to double
  %120 = fdiv double %117, %119
  %121 = fdiv double %114, %120
  store double %121, ptr %20, align 8, !tbaa !26
  call void @llvm.lifetime.start.p0(i64 8, ptr %21) #3
  %122 = load double, ptr %20, align 8, !tbaa !26
  %123 = load double, ptr %18, align 8, !tbaa !26
  %124 = call noundef double @_ZSt3powIdiEN9__gnu_cxx11__promote_2IT_T0_NS0_9__promoteIS2_Xsr3std12__is_integerIS2_EE7__valueEE6__typeENS4_IS3_Xsr3std12__is_integerIS3_EE7__valueEE6__typeEE6__typeES2_S3_(double noundef %123, i32 noundef 3)
  %125 = fadd double %124, 1.000000e+00
  %126 = fmul double %122, %125
  %127 = load double, ptr %18, align 8, !tbaa !26
  %128 = fadd double %127, 1.000000e+00
  %129 = fmul double %126, %128
  %130 = load double, ptr %18, align 8, !tbaa !26
  %131 = call noundef double @_ZSt3powIdiEN9__gnu_cxx11__promote_2IT_T0_NS0_9__promoteIS2_Xsr3std12__is_integerIS2_EE7__valueEE6__typeENS4_IS3_Xsr3std12__is_integerIS3_EE7__valueEE6__typeEE6__typeES2_S3_(double noundef %130, i32 noundef 2)
  %132 = fadd double %131, 1.000000e+00
  %133 = call noundef double @_ZSt3powIdiEN9__gnu_cxx11__promote_2IT_T0_NS0_9__promoteIS2_Xsr3std12__is_integerIS2_EE7__valueEE6__typeENS4_IS3_Xsr3std12__is_integerIS3_EE7__valueEE6__typeEE6__typeES2_S3_(double noundef %132, i32 noundef 2)
  %134 = fdiv double %129, %133
  store double %134, ptr %21, align 8, !tbaa !26
  call void @llvm.lifetime.start.p0(i64 8, ptr %22) #3
  store double 0.000000e+00, ptr %22, align 8, !tbaa !26
  call void @llvm.lifetime.start.p0(i64 8, ptr %23) #3
  store double 1.000000e+10, ptr %23, align 8, !tbaa !26
  call void @llvm.lifetime.start.p0(i64 8, ptr %24) #3
  store double 1.000000e-03, ptr %24, align 8, !tbaa !26
  call void @llvm.lifetime.start.p0(i64 8, ptr %25) #3
  store double 2.000000e-01, ptr %25, align 8, !tbaa !26
  br label %135

135:                                              ; preds = %169, %84
  %136 = load double, ptr %25, align 8, !tbaa !26
  %137 = fcmp olt double %136, 1.000000e+01
  br i1 %137, label %139, label %138

138:                                              ; preds = %135
  store i32 8, ptr %15, align 4
  br label %173

139:                                              ; preds = %135
  call void @llvm.lifetime.start.p0(i64 8, ptr %26) #3
  %140 = load double, ptr %25, align 8, !tbaa !26
  %141 = fdiv double 2.000000e+00, %140
  %142 = call double @tgamma(double noundef %141) #3, !tbaa !24
  %143 = load double, ptr %25, align 8, !tbaa !26
  %144 = fdiv double 2.000000e+00, %143
  %145 = call double @tgamma(double noundef %144) #3, !tbaa !24
  %146 = fmul double %142, %145
  %147 = load double, ptr %25, align 8, !tbaa !26
  %148 = fdiv double 1.000000e+00, %147
  %149 = call double @tgamma(double noundef %148) #3, !tbaa !24
  %150 = load double, ptr %25, align 8, !tbaa !26
  %151 = fdiv double 3.000000e+00, %150
  %152 = call double @tgamma(double noundef %151) #3, !tbaa !24
  %153 = fmul double %149, %152
  %154 = fdiv double %146, %153
  store double %154, ptr %26, align 8, !tbaa !26
  call void @llvm.lifetime.start.p0(i64 8, ptr %27) #3
  %155 = load double, ptr %26, align 8, !tbaa !26
  %156 = load double, ptr %21, align 8, !tbaa !26
  %157 = fsub double %155, %156
  %158 = call noundef double @_ZSt3absd(double noundef %157)
  store double %158, ptr %27, align 8, !tbaa !26
  %159 = load double, ptr %27, align 8, !tbaa !26
  %160 = load double, ptr %23, align 8, !tbaa !26
  %161 = fcmp ogt double %159, %160
  br i1 %161, label %162, label %163

162:                                              ; preds = %139
  store i32 8, ptr %15, align 4
  br label %166

163:                                              ; preds = %139
  %164 = load double, ptr %27, align 8, !tbaa !26
  store double %164, ptr %23, align 8, !tbaa !26
  %165 = load double, ptr %25, align 8, !tbaa !26
  store double %165, ptr %22, align 8, !tbaa !26
  store i32 0, ptr %15, align 4
  br label %166

166:                                              ; preds = %163, %162
  call void @llvm.lifetime.end.p0(i64 8, ptr %27) #3
  call void @llvm.lifetime.end.p0(i64 8, ptr %26) #3
  %167 = load i32, ptr %15, align 4
  switch i32 %167, label %173 [
    i32 0, label %168
  ]

168:                                              ; preds = %166
  br label %169

169:                                              ; preds = %168
  %170 = load double, ptr %24, align 8, !tbaa !26
  %171 = load double, ptr %25, align 8, !tbaa !26
  %172 = fadd double %171, %170
  store double %172, ptr %25, align 8, !tbaa !26
  br label %135, !llvm.loop !123

173:                                              ; preds = %166, %138
  call void @llvm.lifetime.end.p0(i64 8, ptr %25) #3
  br label %174

174:                                              ; preds = %173
  %175 = load double, ptr %22, align 8, !tbaa !26
  %176 = load ptr, ptr %8, align 8, !tbaa !119
  store double %175, ptr %176, align 8, !tbaa !26
  call void @llvm.lifetime.end.p0(i64 8, ptr %24) #3
  call void @llvm.lifetime.end.p0(i64 8, ptr %23) #3
  call void @llvm.lifetime.end.p0(i64 8, ptr %22) #3
  call void @llvm.lifetime.end.p0(i64 8, ptr %21) #3
  call void @llvm.lifetime.end.p0(i64 8, ptr %20) #3
  call void @llvm.lifetime.end.p0(i64 8, ptr %19) #3
  call void @llvm.lifetime.end.p0(i64 8, ptr %18) #3
  call void @llvm.lifetime.end.p0(i64 8, ptr %13) #3
  call void @llvm.lifetime.end.p0(i64 8, ptr %12) #3
  call void @llvm.lifetime.end.p0(i64 8, ptr %11) #3
  call void @llvm.lifetime.end.p0(i64 8, ptr %10) #3
  call void @llvm.lifetime.end.p0(i64 8, ptr %9) #3
  ret void
}