; Function Attrs: mustprogress nofree nounwind memory(readwrite, inaccessiblemem: write) uwtable
define internal fastcc void @_ZN12_GLOBAL__N_17AGGDfitERKN2cv3MatERdS4_S4_(ptr noundef nonnull readonly align 8 captures(none) dereferenceable(96) %0, ptr noundef nonnull align 8 captures(none) dereferenceable(8) %1, ptr noundef nonnull writeonly align 8 captures(none) dereferenceable(8) %2, ptr noundef nonnull writeonly align 8 captures(none) dereferenceable(8) %3) unnamed_addr #14 {
  %5 = getelementptr inbounds nuw i8, ptr %0, i64 8
  %6 = load i32, ptr %5, align 8, !tbaa !75
  %7 = icmp sgt i32 %6, 0
  br i1 %7, label %.preheader.lr.ph, label %._crit_edge99

.preheader.lr.ph:                                 ; preds = %4
  %8 = getelementptr inbounds nuw i8, ptr %0, i64 12
  %9 = load i32, ptr %8, align 4, !tbaa !74
  %10 = icmp sgt i32 %9, 0
  %11 = getelementptr inbounds nuw i8, ptr %0, i64 16
  %12 = load ptr, ptr %11, align 8
  br i1 %10, label %.preheader.lr.ph.split.us, label %._crit_edge99

.preheader.lr.ph.split.us:                        ; preds = %.preheader.lr.ph
  %13 = getelementptr inbounds nuw i8, ptr %0, i64 72
  %14 = load ptr, ptr %13, align 8
  %15 = load i64, ptr %14, align 8, !tbaa !80
  %wide.trip.count117 = zext nneg i32 %6 to i64
  %wide.trip.count = zext nneg i32 %9 to i64
  br label %.preheader.us

.preheader.us:                                    ; preds = %._crit_edge.us, %.preheader.lr.ph.split.us
  %indvars.iv114 = phi i64 [ %indvars.iv.next115, %._crit_edge.us ], [ 0, %.preheader.lr.ph.split.us ]
  %.098.us = phi i64 [ %.2.us, %._crit_edge.us ], [ 0, %.preheader.lr.ph.split.us ]
  %.05797.us = phi i64 [ %.259.us, %._crit_edge.us ], [ 0, %.preheader.lr.ph.split.us ]
  %.06196.us = phi double [ %.263.us, %._crit_edge.us ], [ 0.000000e+00, %.preheader.lr.ph.split.us ]
  %.06995.us = phi double [ %.271.us, %._crit_edge.us ], [ 0.000000e+00, %.preheader.lr.ph.split.us ]
  %.07294.us = phi double [ %.274.us, %._crit_edge.us ], [ 0.000000e+00, %.preheader.lr.ph.split.us ]
  %16 = mul i64 %15, %indvars.iv114
  %17 = getelementptr inbounds nuw i8, ptr %12, i64 %16
  br label %18

18:                                               ; preds = %.preheader.us, %33
  %indvars.iv = phi i64 [ 0, %.preheader.us ], [ %indvars.iv.next, %33 ]
  %.188.us = phi i64 [ %.098.us, %.preheader.us ], [ %.2.us, %33 ]
  %.15887.us = phi i64 [ %.05797.us, %.preheader.us ], [ %.259.us, %33 ]
  %.16286.us = phi double [ %.06196.us, %.preheader.us ], [ %.263.us, %33 ]
  %.17085.us = phi double [ %.06995.us, %.preheader.us ], [ %.271.us, %33 ]
  %.17384.us = phi double [ %.07294.us, %.preheader.us ], [ %.274.us, %33 ]
  %19 = getelementptr inbounds nuw float, ptr %17, i64 %indvars.iv
  %20 = load float, ptr %19, align 4, !tbaa !54
  %21 = fpext float %20 to double
  %22 = fcmp ogt float %20, 0.000000e+00
  br i1 %22, label %29, label %23

23:                                               ; preds = %18
  %24 = fcmp olt float %20, 0.000000e+00
  br i1 %24, label %25, label %33

25:                                               ; preds = %23
  %26 = add nsw i64 %.15887.us, 1
  %27 = tail call double @llvm.fmuladd.f64(double %21, double %21, double %.17085.us)
  %28 = fsub double %.17384.us, %21
  br label %33

29:                                               ; preds = %18
  %30 = add nsw i64 %.188.us, 1
  %31 = tail call double @llvm.fmuladd.f64(double %21, double %21, double %.16286.us)
  %32 = fadd double %.17384.us, %21
  br label %33

33:                                               ; preds = %29, %25, %23
  %.274.us = phi double [ %32, %29 ], [ %28, %25 ], [ %.17384.us, %23 ]
  %.271.us = phi double [ %.17085.us, %29 ], [ %27, %25 ], [ %.17085.us, %23 ]
  %.263.us = phi double [ %31, %29 ], [ %.16286.us, %25 ], [ %.16286.us, %23 ]
  %.259.us = phi i64 [ %.15887.us, %29 ], [ %26, %25 ], [ %.15887.us, %23 ]
  %.2.us = phi i64 [ %30, %29 ], [ %.188.us, %25 ], [ %.188.us, %23 ]
  %indvars.iv.next = add nuw nsw i64 %indvars.iv, 1
  %exitcond.not = icmp eq i64 %indvars.iv.next, %wide.trip.count
  br i1 %exitcond.not, label %._crit_edge.us, label %18, !llvm.loop !83

._crit_edge.us:                                   ; preds = %33
  %indvars.iv.next115 = add nuw nsw i64 %indvars.iv114, 1
  %exitcond118.not = icmp eq i64 %indvars.iv.next115, %wide.trip.count117
  br i1 %exitcond118.not, label %._crit_edge99.loopexit, label %.preheader.us, !llvm.loop !84

._crit_edge99.loopexit:                           ; preds = %._crit_edge.us
  %34 = sitofp i64 %.259.us to double
  %35 = sitofp i64 %.2.us to double
  br label %._crit_edge99

._crit_edge99:                                    ; preds = %.preheader.lr.ph, %._crit_edge99.loopexit, %4
  %.072.lcssa = phi double [ 0.000000e+00, %4 ], [ %.274.us, %._crit_edge99.loopexit ], [ 0.000000e+00, %.preheader.lr.ph ]
  %.069.lcssa = phi double [ 0.000000e+00, %4 ], [ %.271.us, %._crit_edge99.loopexit ], [ 0.000000e+00, %.preheader.lr.ph ]
  %.061.lcssa = phi double [ 0.000000e+00, %4 ], [ %.263.us, %._crit_edge99.loopexit ], [ 0.000000e+00, %.preheader.lr.ph ]
  %.057.lcssa = phi double [ 0.000000e+00, %4 ], [ %34, %._crit_edge99.loopexit ], [ 0.000000e+00, %.preheader.lr.ph ]
  %.0.lcssa = phi double [ 0.000000e+00, %4 ], [ %35, %._crit_edge99.loopexit ], [ 0.000000e+00, %.preheader.lr.ph ]
  %36 = fdiv double %.069.lcssa, %.057.lcssa
  %37 = tail call double @pow(double noundef %36, double noundef 5.000000e-01) #25, !tbaa !28
  store double %37, ptr %1, align 8, !tbaa !56
  %38 = fdiv double %.061.lcssa, %.0.lcssa
  %39 = tail call double @pow(double noundef %38, double noundef 5.000000e-01) #25, !tbaa !28
  store double %39, ptr %2, align 8, !tbaa !56
  %40 = load double, ptr %1, align 8, !tbaa !56
  %41 = fdiv double %40, %39
  %42 = getelementptr inbounds nuw i8, ptr %0, i64 12
  %43 = load i32, ptr %42, align 4, !tbaa !74
  %44 = load i32, ptr %5, align 8, !tbaa !75
  %45 = mul nsw i32 %44, %43
  %46 = sitofp i32 %45 to double
  %47 = fdiv double %.072.lcssa, %46
  %square = fmul double %47, %47
  %48 = fadd double %.069.lcssa, %.061.lcssa
  %49 = fdiv double %48, %46
  %50 = fdiv double %square, %49
  %51 = tail call noundef double @pow(double noundef %41, double noundef 3.000000e+00) #25, !tbaa !28
  %52 = fadd double %51, 1.000000e+00
  %53 = fmul double %52, %50
  %54 = fadd double %41, 1.000000e+00
  %55 = fmul double %54, %53
  %square81 = fmul double %41, %41
  %56 = fadd double %square81, 1.000000e+00
  %square82 = fmul double %56, %56
  %57 = fdiv double %55, %square82
  br label %58

58:                                               ; preds = %._crit_edge99, %72
  %.060111 = phi double [ 2.000000e-01, %._crit_edge99 ], [ %73, %72 ]
  %.064110 = phi double [ 1.000000e+10, %._crit_edge99 ], [ %70, %72 ]
  %.066109 = phi double [ 0.000000e+00, %._crit_edge99 ], [ %.060111, %72 ]
  %59 = fdiv double 2.000000e+00, %.060111
  %60 = tail call double @tgamma(double noundef %59) #25, !tbaa !28
  %61 = tail call double @tgamma(double noundef %59) #25, !tbaa !28
  %62 = fmul double %60, %61
  %63 = fdiv double 1.000000e+00, %.060111
  %64 = tail call double @tgamma(double noundef %63) #25, !tbaa !28
  %65 = fdiv double 3.000000e+00, %.060111
  %66 = tail call double @tgamma(double noundef %65) #25, !tbaa !28
  %67 = fmul double %64, %66
  %68 = fdiv double %62, %67
  %69 = fsub double %68, %57
  %70 = tail call noundef double @llvm.fabs.f64(double %69)
  %71 = fcmp ule double %70, %.064110
  br i1 %71, label %72, label %75

72:                                               ; preds = %58
  %73 = fadd double %.060111, 1.000000e-03
  %74 = fcmp olt double %73, 1.000000e+01
  br i1 %74, label %58, label %75, !llvm.loop !85

75:                                               ; preds = %72, %58
  %.066.lcssa = phi double [ %.060111, %72 ], [ %.066109, %58 ]
  store double %.066.lcssa, ptr %3, align 8, !tbaa !56
  ret void
}